target datalayout = "e-m:e-p270:32:32-p271:32:32-p272:64:64-i64:64-i128:128-f80:128-n8:16:32:64-S128"
target triple = "x86_64-pc-linux-gnu"

%struct._packet_info = type { ptr, ptr, i32, i32, %struct.nstime_t, %struct.nstime_t, %struct.nstime_t, i8, ptr, ptr, ptr, ptr, %struct._address, %struct._address, %struct._address, %struct._address, %struct._address, %struct._address, i32, ptr, i8, [3 x i8], %struct.anon, i32, i32, i32, i32, ptr, i8, ptr, ptr, i16, i16, i32, i32, i16, i32, i32, ptr, ptr, ptr, i8, i8, i16, i16, i16, i32, i16, i16, ptr, ptr, ptr, ptr, ptr, i32, i32 }
%struct.nstime_t = type { i64, i32 }
%struct._address = type { i32, i32, ptr, ptr }
%struct.anon = type { i8, [3 x i8] }

@hf_x11_reply = internal global i32 0, align 4
@hf_x11_reply_sequencenumber = internal global i32 0, align 4
@hf_x11_replylength = internal global i32 0, align 4
@hf_x11_unused = internal global i32 0, align 4
@hf_x11_dri3_BuffersFromPixmap_reply_nfd = internal global i32 0, align 4
@hf_x11_dri3_BuffersFromPixmap_reply_width = internal global i32 0, align 4
@hf_x11_dri3_BuffersFromPixmap_reply_height = internal global i32 0, align 4
@hf_x11_dri3_BuffersFromPixmap_reply_modifier = internal global i32 0, align 4
@hf_x11_dri3_BuffersFromPixmap_reply_depth = internal global i32 0, align 4
@hf_x11_dri3_BuffersFromPixmap_reply_bpp = internal global i32 0, align 4
@hf_x11_dri3_BuffersFromPixmap_reply_strides = internal global i32 0, align 4
@hf_x11_dri3_BuffersFromPixmap_reply_strides_item = internal global i32 0, align 4
@hf_x11_dri3_BuffersFromPixmap_reply_offsets = internal global i32 0, align 4
@hf_x11_dri3_BuffersFromPixmap_reply_offsets_item = internal global i32 0, align 4
@ett_x11_list_of_card32 = internal global i32 0, align 4
@.str.15014 = private unnamed_addr constant [19 x i8] c"-BuffersFromPixmap\00", align 1
@.str.15015 = private unnamed_addr constant [28 x i8] c"%d (dri3-BuffersFromPixmap)\00", align 1

; Function Attrs: null_pointer_is_valid sspstrong uwtable
define internal void @listOfCard32(ptr noundef %0, ptr noundef %1, ptr noundef %2, i32 noundef %3, i32 noundef %4, i32 noundef %5, i32 noundef %6) #1 {
  %8 = alloca ptr, align 8
  %9 = alloca ptr, align 8
  %10 = alloca ptr, align 8
  %11 = alloca i32, align 4
  %12 = alloca i32, align 4
  %13 = alloca i32, align 4
  %14 = alloca i32, align 4
  %15 = alloca ptr, align 8
  %16 = alloca ptr, align 8
  store ptr %0, ptr %8, align 8
  store ptr %1, ptr %9, align 8
  store ptr %2, ptr %10, align 8
  store i32 %3, ptr %11, align 4
  store i32 %4, ptr %12, align 4
  store i32 %5, ptr %13, align 4
  store i32 %6, ptr %14, align 4
  call void @llvm.lifetime.start.p0(i64 8, ptr %15) #11
  %17 = load ptr, ptr %10, align 8
  %18 = load i32, ptr %11, align 4
  %19 = load ptr, ptr %8, align 8
  %20 = load ptr, ptr %9, align 8
  %21 = load i32, ptr %20, align 4
  %22 = load i32, ptr %13, align 4
  %23 = mul i32 %22, 4
  %24 = load i32, ptr %14, align 4
  %25 = call ptr @proto_tree_add_item(ptr noundef %17, i32 noundef %18, ptr noundef %19, i32 noundef %21, i32 noundef %23, i32 noundef %24)
  store ptr %25, ptr %15, align 8
  call void @llvm.lifetime.start.p0(i64 8, ptr %16) #11
  %26 = load ptr, ptr %15, align 8
  %27 = load i32, ptr @ett_x11_list_of_card32, align 4
  %28 = call ptr @proto_item_add_subtree(ptr noundef %26, i32 noundef %27)
  store ptr %28, ptr %16, align 8
  br label %29

29:                                               ; preds = %33, %7
  %30 = load i32, ptr %13, align 4
  %31 = add i32 %30, -1
  store i32 %31, ptr %13, align 4
  %32 = icmp ne i32 %30, 0
  br i1 %32, label %33, label %44

33:                                               ; preds = %29
  %34 = load ptr, ptr %16, align 8
  %35 = load i32, ptr %12, align 4
  %36 = load ptr, ptr %8, align 8
  %37 = load ptr, ptr %9, align 8
  %38 = load i32, ptr %37, align 4
  %39 = load i32, ptr %14, align 4
  %40 = call ptr @proto_tree_add_item(ptr noundef %34, i32 noundef %35, ptr noundef %36, i32 noundef %38, i32 noundef 4, i32 noundef %39)
  %41 = load ptr, ptr %9, align 8
  %42 = load i32, ptr %41, align 4
  %43 = add i32 %42, 4
  store i32 %43, ptr %41, align 4
  br label %29, !llvm.loop !45

44:                                               ; preds = %29
  call void @llvm.lifetime.end.p0(i64 8, ptr %16) #11
  call void @llvm.lifetime.end.p0(i64 8, ptr %15) #11
  ret void
}

; Function Attrs: null_pointer_is_valid sspstrong uwtable
define internal void @dri3BuffersFromPixmap_Reply(ptr noundef %0, ptr noundef %1, ptr noundef %2, ptr noundef %3, i32 noundef %4) #1 {
  %6 = alloca ptr, align 8
  %7 = alloca ptr, align 8
  %8 = alloca ptr, align 8
  %9 = alloca ptr, align 8
  %10 = alloca i32, align 4
  %11 = alloca i32, align 4
  %12 = alloca i32, align 4
  store ptr %0, ptr %6, align 8
  store ptr %1, ptr %7, align 8
  store ptr %2, ptr %8, align 8
  store ptr %3, ptr %9, align 8
  store i32 %4, ptr %10, align 4
  call void @llvm.lifetime.start.p0(i64 4, ptr %11) #11
  call void @llvm.lifetime.start.p0(i64 4, ptr %12) #11
  %13 = load ptr, ptr %7, align 8
  %14 = getelementptr inbounds nuw %struct._packet_info, ptr %13, i32 0, i32 1
  %15 = load ptr, ptr %14, align 8
  call void (ptr, i32, ptr, ...) @col_append_fstr(ptr noundef %15, i32 noundef 25, ptr noundef @.str.15014)
  %16 = load ptr, ptr %6, align 8
  %17 = load ptr, ptr %8, align 8
  %18 = load ptr, ptr %9, align 8
  %19 = load i32, ptr @hf_x11_reply, align 4
  %20 = load i32, ptr %10, align 4
  %21 = call i32 @field8(ptr noundef %16, ptr noundef %17, ptr noundef %18, i32 noundef %19, i32 noundef %20)
  %22 = load ptr, ptr %6, align 8
  %23 = load ptr, ptr %8, align 8
  %24 = load i32, ptr %23, align 4
  %25 = call zeroext i8 @tvb_get_uint8(ptr noundef %22, i32 noundef %24)
  %26 = zext i8 %25 to i32
  store i32 %26, ptr %12, align 4
  %27 = load ptr, ptr %9, align 8
  %28 = load i32, ptr @hf_x11_dri3_BuffersFromPixmap_reply_nfd, align 4
  %29 = load ptr, ptr %6, align 8
  %30 = load ptr, ptr %8, align 8
  %31 = load i32, ptr %30, align 4
  %32 = load i32, ptr %10, align 4
  %33 = call ptr @proto_tree_add_item(ptr noundef %27, i32 noundef %28, ptr noundef %29, i32 noundef %31, i32 noundef 1, i32 noundef %32)
  %34 = load ptr, ptr %8, align 8
  %35 = load i32, ptr %34, align 4
  %36 = add i32 %35, 1
  store i32 %36, ptr %34, align 4
  %37 = load ptr, ptr %6, align 8
  %38 = load ptr, ptr %8, align 8
  %39 = load i32, ptr %38, align 4
  %40 = load i32, ptr %10, align 4
  %41 = call zeroext i16 @tvb_get_uint16(ptr noundef %37, i32 noundef %39, i32 noundef %40)
  %42 = zext i16 %41 to i32
  store i32 %42, ptr %11, align 4
  %43 = load ptr, ptr %9, align 8
  %44 = load i32, ptr @hf_x11_reply_sequencenumber, align 4
  %45 = load ptr, ptr %6, align 8
  %46 = load ptr, ptr %8, align 8
  %47 = load i32, ptr %46, align 4
  %48 = load i32, ptr %11, align 4
  %49 = load i32, ptr %11, align 4
  %50 = call ptr (ptr, i32, ptr, i32, i32, i32, ptr, ...) @proto_tree_add_uint_format_value(ptr noundef %43, i32 noundef %44, ptr noundef %45, i32 noundef %47, i32 noundef 2, i32 noundef %48, ptr noundef @.str.15015, i32 noundef %49)
  %51 = load ptr, ptr %8, align 8
  %52 = load i32, ptr %51, align 4
  %53 = add i32 %52, 2
  store i32 %53, ptr %51, align 4
  %54 = load ptr, ptr %9, align 8
  %55 = load i32, ptr @hf_x11_replylength, align 4
  %56 = load ptr, ptr %6, align 8
  %57 = load ptr, ptr %8, align 8
  %58 = load i32, ptr %57, align 4
  %59 = load i32, ptr %10, align 4
  %60 = call ptr @proto_tree_add_item(ptr noundef %54, i32 noundef %55, ptr noundef %56, i32 noundef %58, i32 noundef 4, i32 noundef %59)
  %61 = load ptr, ptr %8, align 8
  %62 = load i32, ptr %61, align 4
  %63 = add i32 %62, 4
  store i32 %63, ptr %61, align 4
  %64 = load ptr, ptr %9, align 8
  %65 = load i32, ptr @hf_x11_dri3_BuffersFromPixmap_reply_width, align 4
  %66 = load ptr, ptr %6, align 8
  %67 = load ptr, ptr %8, align 8
  %68 = load i32, ptr %67, align 4
  %69 = load i32, ptr %10, align 4
  %70 = call ptr @proto_tree_add_item(ptr noundef %64, i32 noundef %65, ptr noundef %66, i32 noundef %68, i32 noundef 2, i32 noundef %69)
  %71 = load ptr, ptr %8, align 8
  %72 = load i32, ptr %71, align 4
  %73 = add i32 %72, 2
  store i32 %73, ptr %71, align 4
  %74 = load ptr, ptr %9, align 8
  %75 = load i32, ptr @hf_x11_dri3_BuffersFromPixmap_reply_height, align 4
  %76 = load ptr, ptr %6, align 8
  %77 = load ptr, ptr %8, align 8
  %78 = load i32, ptr %77, align 4
  %79 = load i32, ptr %10, align 4
  %80 = call ptr @proto_tree_add_item(ptr noundef %74, i32 noundef %75, ptr noundef %76, i32 noundef %78, i32 noundef 2, i32 noundef %79)
  %81 = load ptr, ptr %8, align 8
  %82 = load i32, ptr %81, align 4
  %83 = add i32 %82, 2
  store i32 %83, ptr %81, align 4
  %84 = load ptr, ptr %9, align 8
  %85 = load i32, ptr @hf_x11_unused, align 4
  %86 = load ptr, ptr %6, align 8
  %87 = load ptr, ptr %8, align 8
  %88 = load i32, ptr %87, align 4
  %89 = call ptr @proto_tree_add_item(ptr noundef %84, i32 noundef %85, ptr noundef %86, i32 noundef %88, i32 noundef 4, i32 noundef 0)
  %90 = load ptr, ptr %8, align 8
  %91 = load i32, ptr %90, align 4
  %92 = add i32 %91, 4
  store i32 %92, ptr %90, align 4
  %93 = load ptr, ptr %9, align 8
  %94 = load i32, ptr @hf_x11_dri3_BuffersFromPixmap_reply_modifier, align 4
  %95 = load ptr, ptr %6, align 8
  %96 = load ptr, ptr %8, align 8
  %97 = load i32, ptr %96, align 4
  %98 = load i32, ptr %10, align 4
  %99 = call ptr @proto_tree_add_item(ptr noundef %93, i32 noundef %94, ptr noundef %95, i32 noundef %97, i32 noundef 8, i32 noundef %98)
  %100 = load ptr, ptr %8, align 8
  %101 = load i32, ptr %100, align 4
  %102 = add i32 %101, 8
  store i32 %102, ptr %100, align 4
  %103 = load ptr, ptr %9, align 8
  %104 = load i32, ptr @hf_x11_dri3_BuffersFromPixmap_reply_depth, align 4
  %105 = load ptr, ptr %6, align 8
  %106 = load ptr, ptr %8, align 8
  %107 = load i32, ptr %106, align 4
  %108 = load i32, ptr %10, align 4
  %109 = call ptr @proto_tree_add_item(ptr noundef %103, i32 noundef %104, ptr noundef %105, i32 noundef %107, i32 noundef 1, i32 noundef %108)
  %110 = load ptr, ptr %8, align 8
  %111 = load i32, ptr %110, align 4
  %112 = add i32 %111, 1
  store i32 %112, ptr %110, align 4
  %113 = load ptr, ptr %9, align 8
  %114 = load i32, ptr @hf_x11_dri3_BuffersFromPixmap_reply_bpp, align 4
  %115 = load ptr, ptr %6, align 8
  %116 = load ptr, ptr %8, align 8
  %117 = load i32, ptr %116, align 4
  %118 = load i32, ptr %10, align 4
  %119 = call ptr @proto_tree_add_item(ptr noundef %113, i32 noundef %114, ptr noundef %115, i32 noundef %117, i32 noundef 1, i32 noundef %118)
  %120 = load ptr, ptr %8, align 8
  %121 = load i32, ptr %120, align 4
  %122 = add i32 %121, 1
  store i32 %122, ptr %120, align 4
  %123 = load ptr, ptr %9, align 8
  %124 = load i32, ptr @hf_x11_unused, align 4
  %125 = load ptr, ptr %6, align 8
  %126 = load ptr, ptr %8, align 8
  %127 = load i32, ptr %126, align 4
  %128 = call ptr @proto_tree_add_item(ptr noundef %123, i32 noundef %124, ptr noundef %125, i32 noundef %127, i32 noundef 6, i32 noundef 0)
  %129 = load ptr, ptr %8, align 8
  %130 = load i32, ptr %129, align 4
  %131 = add i32 %130, 6
  store i32 %131, ptr %129, align 4
  %132 = load ptr, ptr %6, align 8
  %133 = load ptr, ptr %8, align 8
  %134 = load ptr, ptr %9, align 8
  %135 = load i32, ptr @hf_x11_dri3_BuffersFromPixmap_reply_strides, align 4
  %136 = load i32, ptr @hf_x11_dri3_BuffersFromPixmap_reply_strides_item, align 4
  %137 = load i32, ptr %12, align 4
  %138 = load i32, ptr %10, align 4
  call void @listOfCard32(ptr noundef %132, ptr noundef %133, ptr noundef %134, i32 noundef %135, i32 noundef %136, i32 noundef %137, i32 noundef %138)
  %139 = load ptr, ptr %6, align 8
  %140 = load ptr, ptr %8, align 8
  %141 = load ptr, ptr %9, align 8
  %142 = load i32, ptr @hf_x11_dri3_BuffersFromPixmap_reply_offsets, align 4
  %143 = load i32, ptr @hf_x11_dri3_BuffersFromPixmap_reply_offsets_item, align 4
  %144 = load i32, ptr %12, align 4
  %145 = load i32, ptr %10, align 4
  call void @listOfCard32(ptr noundef %139, ptr noundef %140, ptr noundef %141, i32 noundef %142, i32 noundef %143, i32 noundef %144, i32 noundef %145)
  call void @llvm.lifetime.end.p0(i64 4, ptr %12) #11
  call void @llvm.lifetime.end.p0(i64 4, ptr %11) #11
  ret void
}