; Function Attrs: null_pointer_is_valid sspstrong uwtable
define internal void @dri3BuffersFromPixmap_Reply(ptr noundef %0, ptr noundef readonly captures(none) %1, ptr noundef captures(none) %2, ptr noundef %3, i32 noundef %4) #1 {
  %6 = getelementptr inbounds nuw i8, ptr %1, i64 8
  %7 = load ptr, ptr %6, align 8
  tail call void (ptr, i32, ptr, ...) @col_append_fstr(ptr noundef %7, i32 noundef 25, ptr noundef nonnull @.str.15014)
  %8 = load i32, ptr @hf_x11_reply, align 4
  %9 = tail call fastcc i32 @field8(ptr noundef %0, ptr noundef %2, ptr noundef %3, i32 noundef %8, i32 noundef %4)
  %10 = load i32, ptr %2, align 4
  %11 = tail call zeroext i8 @tvb_get_uint8(ptr noundef %0, i32 noundef %10)
  %12 = zext i8 %11 to i32
  %13 = load i32, ptr @hf_x11_dri3_BuffersFromPixmap_reply_nfd, align 4
  %14 = load i32, ptr %2, align 4
  %15 = tail call ptr @proto_tree_add_item(ptr noundef %3, i32 noundef %13, ptr noundef %0, i32 noundef %14, i32 noundef 1, i32 noundef %4)
  %16 = load i32, ptr %2, align 4
  %17 = add i32 %16, 1
  store i32 %17, ptr %2, align 4
  %18 = tail call zeroext i16 @tvb_get_uint16(ptr noundef %0, i32 noundef %17, i32 noundef %4)
  %19 = zext i16 %18 to i32
  %20 = load i32, ptr @hf_x11_reply_sequencenumber, align 4
  %21 = load i32, ptr %2, align 4
  %22 = tail call ptr (ptr, i32, ptr, i32, i32, i32, ptr, ...) @proto_tree_add_uint_format_value(ptr noundef %3, i32 noundef %20, ptr noundef %0, i32 noundef %21, i32 noundef 2, i32 noundef %19, ptr noundef nonnull @.str.15015, i32 noundef %19)
  %23 = load i32, ptr %2, align 4
  %24 = add i32 %23, 2
  store i32 %24, ptr %2, align 4
  %25 = load i32, ptr @hf_x11_replylength, align 4
  %26 = tail call ptr @proto_tree_add_item(ptr noundef %3, i32 noundef %25, ptr noundef %0, i32 noundef %24, i32 noundef 4, i32 noundef %4)
  %27 = load i32, ptr %2, align 4
  %28 = add i32 %27, 4
  store i32 %28, ptr %2, align 4
  %29 = load i32, ptr @hf_x11_dri3_BuffersFromPixmap_reply_width, align 4
  %30 = tail call ptr @proto_tree_add_item(ptr noundef %3, i32 noundef %29, ptr noundef %0, i32 noundef %28, i32 noundef 2, i32 noundef %4)
  %31 = load i32, ptr %2, align 4
  %32 = add i32 %31, 2
  store i32 %32, ptr %2, align 4
  %33 = load i32, ptr @hf_x11_dri3_BuffersFromPixmap_reply_height, align 4
  %34 = tail call ptr @proto_tree_add_item(ptr noundef %3, i32 noundef %33, ptr noundef %0, i32 noundef %32, i32 noundef 2, i32 noundef %4)
  %35 = load i32, ptr %2, align 4
  %36 = add i32 %35, 2
  store i32 %36, ptr %2, align 4
  %37 = load i32, ptr @hf_x11_unused, align 4
  %38 = tail call ptr @proto_tree_add_item(ptr noundef %3, i32 noundef %37, ptr noundef %0, i32 noundef %36, i32 noundef 4, i32 noundef 0)
  %39 = load i32, ptr %2, align 4
  %40 = add i32 %39, 4
  store i32 %40, ptr %2, align 4
  %41 = load i32, ptr @hf_x11_dri3_BuffersFromPixmap_reply_modifier, align 4
  %42 = tail call ptr @proto_tree_add_item(ptr noundef %3, i32 noundef %41, ptr noundef %0, i32 noundef %40, i32 noundef 8, i32 noundef %4)
  %43 = load i32, ptr %2, align 4
  %44 = add i32 %43, 8
  store i32 %44, ptr %2, align 4
  %45 = load i32, ptr @hf_x11_dri3_BuffersFromPixmap_reply_depth, align 4
  %46 = tail call ptr @proto_tree_add_item(ptr noundef %3, i32 noundef %45, ptr noundef %0, i32 noundef %44, i32 noundef 1, i32 noundef %4)
  %47 = load i32, ptr %2, align 4
  %48 = add i32 %47, 1
  store i32 %48, ptr %2, align 4
  %49 = load i32, ptr @hf_x11_dri3_BuffersFromPixmap_reply_bpp, align 4
  %50 = tail call ptr @proto_tree_add_item(ptr noundef %3, i32 noundef %49, ptr noundef %0, i32 noundef %48, i32 noundef 1, i32 noundef %4)
  %51 = load i32, ptr %2, align 4
  %52 = add i32 %51, 1
  store i32 %52, ptr %2, align 4
  %53 = load i32, ptr @hf_x11_unused, align 4
  %54 = tail call ptr @proto_tree_add_item(ptr noundef %3, i32 noundef %53, ptr noundef %0, i32 noundef %52, i32 noundef 6, i32 noundef 0)
  %55 = load i32, ptr %2, align 4
  %56 = add i32 %55, 6
  store i32 %56, ptr %2, align 4
  %57 = load i32, ptr @hf_x11_dri3_BuffersFromPixmap_reply_strides, align 4
  %58 = load i32, ptr @hf_x11_dri3_BuffersFromPixmap_reply_strides_item, align 4
  %59 = shl nuw nsw i32 %12, 2
  %60 = tail call ptr @proto_tree_add_item(ptr noundef %3, i32 noundef %57, ptr noundef %0, i32 noundef %56, i32 noundef %59, i32 noundef %4)
  %61 = load i32, ptr @ett_x11_list_of_card32, align 4
  %62 = tail call ptr @proto_item_add_subtree(ptr noundef %60, i32 noundef %61)
  %.not13.i = icmp eq i8 %11, 0
  %.pre = load i32, ptr %2, align 4
  br i1 %.not13.i, label %listOfCard32.exit, label %.lr.ph.i

.lr.ph.i:                                         ; preds = %5, %.lr.ph.i
  %63 = phi i32 [ %67, %.lr.ph.i ], [ %.pre, %5 ]
  %.014.i = phi i32 [ %64, %.lr.ph.i ], [ %12, %5 ]
  %64 = add nsw i32 %.014.i, -1
  %65 = tail call ptr @proto_tree_add_item(ptr noundef %62, i32 noundef %58, ptr noundef %0, i32 noundef %63, i32 noundef 4, i32 noundef %4)
  %66 = load i32, ptr %2, align 4
  %67 = add i32 %66, 4
  store i32 %67, ptr %2, align 4
  %.not.i = icmp eq i32 %64, 0
  br i1 %.not.i, label %listOfCard32.exit, label %.lr.ph.i, !llvm.loop !44

listOfCard32.exit:                                ; preds = %.lr.ph.i, %5
  %68 = phi i32 [ %.pre, %5 ], [ %67, %.lr.ph.i ]
  %69 = load i32, ptr @hf_x11_dri3_BuffersFromPixmap_reply_offsets, align 4
  %70 = load i32, ptr @hf_x11_dri3_BuffersFromPixmap_reply_offsets_item, align 4
  %71 = tail call ptr @proto_tree_add_item(ptr noundef %3, i32 noundef %69, ptr noundef %0, i32 noundef %68, i32 noundef %59, i32 noundef %4)
  %72 = load i32, ptr @ett_x11_list_of_card32, align 4
  %73 = tail call ptr @proto_item_add_subtree(ptr noundef %71, i32 noundef %72)
  br i1 %.not13.i, label %listOfCard32.exit74, label %.lr.ph.preheader.i69

.lr.ph.preheader.i69:                             ; preds = %listOfCard32.exit
  %.pre.i70 = load i32, ptr %2, align 4
  br label %.lr.ph.i71

.lr.ph.i71:                                       ; preds = %.lr.ph.i71, %.lr.ph.preheader.i69
  %74 = phi i32 [ %78, %.lr.ph.i71 ], [ %.pre.i70, %.lr.ph.preheader.i69 ]
  %.014.i72 = phi i32 [ %75, %.lr.ph.i71 ], [ %12, %.lr.ph.preheader.i69 ]
  %75 = add nsw i32 %.014.i72, -1
  %76 = tail call ptr @proto_tree_add_item(ptr noundef %73, i32 noundef %70, ptr noundef %0, i32 noundef %74, i32 noundef 4, i32 noundef %4)
  %77 = load i32, ptr %2, align 4
  %78 = add i32 %77, 4
  store i32 %78, ptr %2, align 4
  %.not.i73 = icmp eq i32 %75, 0
  br i1 %.not.i73, label %listOfCard32.exit74, label %.lr.ph.i71, !llvm.loop !44

listOfCard32.exit74:                              ; preds = %.lr.ph.i71, %listOfCard32.exit
  ret void
}